target datalayout = "e-m:e-p270:32:32-p271:32:32-p272:64:64-i64:64-i128:128-f80:128-n8:16:32:64-S128"
target triple = "x86_64-pc-linux-gnu"

%"class.draco::DecoderBuffer" = type <{ ptr, i64, i64, %"class.draco::DecoderBuffer::BitDecoder", i8, i8, i16, [4 x i8] }>
%"class.draco::DecoderBuffer::BitDecoder" = type { ptr, ptr, i64 }

; Function Attrs: inlinehint mustprogress nounwind uwtable
define linkonce_odr noundef i64 @_ZNK5draco13DecoderBuffer10BitDecoder11BitsDecodedEv(ptr noundef nonnull align 8 dereferenceable(24) %0) #6 comdat align 2 {
  %2 = alloca ptr, align 8
  store ptr %0, ptr %2, align 8, !tbaa !27
  %3 = load ptr, ptr %2, align 8
  %4 = getelementptr inbounds nuw %"class.draco::DecoderBuffer::BitDecoder", ptr %3, i32 0, i32 2
  %5 = load i64, ptr %4, align 8, !tbaa !30
  ret i64 %5
}

; Function Attrs: mustprogress uwtable
define void @_ZN5draco13DecoderBuffer14EndBitDecodingEv(ptr noundef nonnull align 8 dereferenceable(52) %0) #4 align 2 {
  %2 = alloca ptr, align 8
  %3 = alloca i64, align 8
  %4 = alloca i64, align 8
  store ptr %0, ptr %2, align 8, !tbaa !3
  %5 = load ptr, ptr %2, align 8
  %6 = getelementptr inbounds nuw %"class.draco::DecoderBuffer", ptr %5, i32 0, i32 4
  store i8 0, ptr %6, align 8, !tbaa !17
  call void @llvm.lifetime.start.p0(i64 8, ptr %3) #3
  %7 = getelementptr inbounds nuw %"class.draco::DecoderBuffer", ptr %5, i32 0, i32 3
  %8 = call noundef i64 @_ZNK5draco13DecoderBuffer10BitDecoder11BitsDecodedEv(ptr noundef nonnull align 8 dereferenceable(24) %7)
  store i64 %8, ptr %3, align 8, !tbaa !20
  call void @llvm.lifetime.start.p0(i64 8, ptr %4) #3
  %9 = load i64, ptr %3, align 8, !tbaa !20
  %10 = add i64 %9, 7
  %11 = udiv i64 %10, 8
  store i64 %11, ptr %4, align 8, !tbaa !20
  %12 = load i64, ptr %4, align 8, !tbaa !20
  %13 = getelementptr inbounds nuw %"class.draco::DecoderBuffer", ptr %5, i32 0, i32 2
  %14 = load i64, ptr %13, align 8, !tbaa !16
  %15 = add i64 %14, %12
  store i64 %15, ptr %13, align 8, !tbaa !16
  call void @llvm.lifetime.end.p0(i64 8, ptr %4) #3
  call void @llvm.lifetime.end.p0(i64 8, ptr %3) #3
  ret void
}