; Function Attrs: mustprogress nofree norecurse nosync nounwind willreturn memory(argmem: readwrite) uwtable
define void @_ZN5draco13DecoderBuffer14EndBitDecodingEv(ptr noundef nonnull align 8 captures(none) dereferenceable(52) initializes((48, 49)) %0) local_unnamed_addr #6 align 2 {
  %2 = getelementptr inbounds nuw i8, ptr %0, i64 48
  store i8 0, ptr %2, align 8, !tbaa !3
  %3 = getelementptr inbounds nuw i8, ptr %0, i64 40
  %4 = load i64, ptr %3, align 8, !tbaa !17
  %5 = add i64 %4, 7
  %6 = lshr i64 %5, 3
  %7 = getelementptr inbounds nuw i8, ptr %0, i64 16
  %8 = load i64, ptr %7, align 8, !tbaa !16
  %9 = add i64 %6, %8
  store i64 %9, ptr %7, align 8, !tbaa !16
  ret void
}